; Function Attrs: mustprogress nounwind uwtable
define void @_ZN11SecPassword3SetEPKw(ptr noundef nonnull align 8 captures(none) dereferenceable(25) initializes((24, 25)) %0, ptr noundef readonly captures(none) %1) local_unnamed_addr #2 align 2 {
  %3 = getelementptr inbounds nuw i8, ptr %0, i64 24
  store i8 0, ptr %3, align 8, !tbaa !11
  %4 = getelementptr inbounds nuw i8, ptr %0, i64 8
  %5 = load ptr, ptr %4, align 8, !tbaa !10
  %6 = load ptr, ptr %0, align 8, !tbaa !3
  %7 = ptrtoint ptr %5 to i64
  %8 = ptrtoint ptr %6 to i64
  %9 = sub i64 %7, %8
  %.not.i = icmp eq ptr %5, %6
  %10 = icmp eq ptr %6, null
  %or.cond.i = or i1 %.not.i, %10
  br i1 %or.cond.i, label %_ZN11SecPassword5CleanEv.exit, label %.preheader.i.i

.preheader.i.i:                                   ; preds = %2, %.preheader.i.i
  %.010.i.i = phi i64 [ %12, %.preheader.i.i ], [ 0, %2 ]
  %11 = getelementptr inbounds nuw i8, ptr %6, i64 %.010.i.i
  store volatile i8 0, ptr %11, align 1, !tbaa !17
  %12 = add nuw i64 %.010.i.i, 1
  %exitcond.not.i.i = icmp eq i64 %12, %9
  br i1 %exitcond.not.i.i, label %_ZN11SecPassword5CleanEv.exit, label %.preheader.i.i, !llvm.loop !18

_ZN11SecPassword5CleanEv.exit:                    ; preds = %.preheader.i.i, %2
  %13 = load i32, ptr %1, align 4, !tbaa !20
  %.not = icmp eq i32 %13, 0
  br i1 %.not, label %_ZN11SecPassword7ProcessEPKwmPwmb.exit, label %14

14:                                               ; preds = %_ZN11SecPassword5CleanEv.exit
  store i8 1, ptr %3, align 8, !tbaa !11
  %15 = tail call i64 @wcslen(ptr noundef nonnull %1) #14
  %16 = add i64 %15, 1
  %17 = load ptr, ptr %0, align 8, !tbaa !3
  %18 = load ptr, ptr %4, align 8, !tbaa !10
  %19 = ptrtoint ptr %18 to i64
  %20 = ptrtoint ptr %17 to i64
  %21 = sub i64 %19, %20
  %22 = ashr exact i64 %21, 2
  %23 = tail call i64 @llvm.umin.i64(i64 %16, i64 %22)
  %24 = shl i64 %23, 2
  tail call void @llvm.memcpy.p0.p0.i64(ptr nonnull align 4 %17, ptr nonnull readonly align 4 %1, i64 %24, i1 false)
  %25 = tail call i32 @getpid() #15
  %.not.i.i = icmp eq ptr %18, %17
  br i1 %.not.i.i, label %_ZN11SecPassword7ProcessEPKwmPwmb.exit, label %.lr.ph.i.i

.lr.ph.i.i:                                       ; preds = %14
  %26 = zext i32 %25 to i64
  br label %27

27:                                               ; preds = %27, %.lr.ph.i.i
  %.06.i.i = phi i64 [ 0, %.lr.ph.i.i ], [ %34, %27 ]
  %28 = add i64 %.06.i.i, %26
  %29 = getelementptr inbounds nuw i8, ptr %17, i64 %.06.i.i
  %30 = load i8, ptr %29, align 1, !tbaa !17
  %31 = trunc i64 %28 to i8
  %32 = add i8 %31, 75
  %33 = xor i8 %32, %30
  store i8 %33, ptr %29, align 1, !tbaa !17
  %34 = add nuw i64 %.06.i.i, 1
  %exitcond.not.i.i4 = icmp eq i64 %34, %21
  br i1 %exitcond.not.i.i4, label %_ZN11SecPassword7ProcessEPKwmPwmb.exit, label %27, !llvm.loop !22

_ZN11SecPassword7ProcessEPKwmPwmb.exit:           ; preds = %27, %14, %_ZN11SecPassword5CleanEv.exit
  ret void
}